target datalayout = "e-m:e-p270:32:32-p271:32:32-p272:64:64-i64:64-i128:128-f80:128-n8:16:32:64-S128"
target triple = "x86_64-unknown-linux-gnu"

%"struct.spacer::iuc_solver::def_manager" = type { ptr, %class.ref_vector, %class.obj_map, %class.obj_map.6 }
%class.ref_vector = type { %class.ref_vector_core }
%class.ref_vector_core = type { %class.ref_manager_wrapper, %class.ptr_vector }
%class.ref_manager_wrapper = type { ptr }
%class.ptr_vector = type { %class.vector }
%class.vector = type { ptr }
%class.obj_map = type { %class.core_hashtable }
%class.core_hashtable = type <{ ptr, i32, i32, i32, [4 x i8] }>
%class.obj_map.6 = type { %class.core_hashtable.7 }
%class.core_hashtable.7 = type <{ ptr, i32, i32, i32, [4 x i8] }>
%"class.spacer::iuc_solver" = type <{ %class.solver, ptr, %class.ref_vector.0, i32, [4 x i8], %class.vector.5, %"struct.spacer::iuc_solver::def_manager", %class.ref_vector, i32, i8, [3 x i8], %class.stopwatch, %class.stopwatch, %class.stopwatch, %class.stopwatch, %class.expr_substitution, i8, [3 x i8], i32, i32, i8, i8, [2 x i8] }>
%class.solver = type { %class.check_sat_result, %"class.user_propagator::core", %class.params_ref, %class.symbol }
%class.check_sat_result = type { ptr, ptr, %class.ref_vector, %class.obj_ref, i32, i32, %class.ref, double }
%class.obj_ref = type { ptr, ptr }
%class.ref = type { ptr }
%"class.user_propagator::core" = type { ptr }
%class.params_ref = type { ptr }
%class.symbol = type { ptr }
%class.ref_vector.0 = type { %class.ref_vector_core.1 }
%class.ref_vector_core.1 = type { %class.ref_manager_wrapper.2, %class.ptr_vector.3 }
%class.ref_manager_wrapper.2 = type { ptr }
%class.ptr_vector.3 = type { %class.vector.4 }
%class.vector.4 = type { ptr }
%class.vector.5 = type { ptr }
%class.stopwatch = type <{ %"class.std::chrono::time_point", %"class.std::chrono::duration", i8, [7 x i8] }>
%"class.std::chrono::time_point" = type { %"class.std::chrono::duration" }
%"class.std::chrono::duration" = type { i64 }
%class.expr_substitution = type <{ ptr, %class.obj_map.11, %class.scoped_ptr, %class.scoped_ptr.16, i8, [7 x i8] }>
%class.obj_map.11 = type { %class.core_hashtable.12 }
%class.core_hashtable.12 = type <{ ptr, i32, i32, i32, [4 x i8] }>
%class.scoped_ptr = type { ptr }
%class.scoped_ptr.16 = type { ptr }

; Function Attrs: noreturn nounwind uwtable
define linkonce_odr hidden void @__clang_call_terminate(ptr noundef %0) #9 comdat {
  %2 = call ptr @__cxa_begin_catch(ptr %0) #3
  call void @_ZSt9terminatev() #15
  unreachable
}

; Function Attrs: mustprogress nounwind uwtable
define linkonce_odr hidden void @_ZNSt6chrono8durationIlSt5ratioILl1ELl1000000000EEEC2IlvEERKT_(ptr noundef nonnull align 8 dereferenceable(8) %this, ptr noundef nonnull align 8 dereferenceable(8) %__rep) unnamed_addr #5 comdat align 2 {
entry:
  %this.addr = alloca ptr, align 8
  %__rep.addr = alloca ptr, align 8
  store ptr %this, ptr %this.addr, align 8
  store ptr %__rep, ptr %__rep.addr, align 8
  %this1 = load ptr, ptr %this.addr, align 8
  %__r = getelementptr inbounds %"class.std::chrono::duration", ptr %this1, i32 0, i32 0
  %0 = load ptr, ptr %__rep.addr, align 8
  %1 = load i64, ptr %0, align 8
  store i64 %1, ptr %__r, align 8
  ret void
}

; Function Attrs: mustprogress nounwind uwtable
define linkonce_odr hidden noundef i64 @_ZNSt6chrono15duration_valuesIlE4zeroEv() #5 comdat align 2 {
entry:
  ret i64 0
}

; Function Attrs: mustprogress nounwind uwtable
define linkonce_odr hidden i64 @_ZNSt6chrono8durationIlSt5ratioILl1ELl1000000000EEE4zeroEv() #5 comdat align 2 personality ptr @__gxx_personality_v0 {
entry:
  %retval = alloca %"class.std::chrono::duration", align 8
  %ref.tmp = alloca i64, align 8
  %call = call noundef i64 @_ZNSt6chrono15duration_valuesIlE4zeroEv() #3
  store i64 %call, ptr %ref.tmp, align 8
  invoke void @_ZNSt6chrono8durationIlSt5ratioILl1ELl1000000000EEEC2IlvEERKT_(ptr noundef nonnull align 8 dereferenceable(8) %retval, ptr noundef nonnull align 8 dereferenceable(8) %ref.tmp)
          to label %invoke.cont unwind label %terminate.lpad

invoke.cont:                                      ; preds = %entry
  %coerce.dive = getelementptr inbounds %"class.std::chrono::duration", ptr %retval, i32 0, i32 0
  %0 = load i64, ptr %coerce.dive, align 8
  ret i64 %0

terminate.lpad:                                   ; preds = %entry
  %1 = landingpad { ptr, i32 }
          catch ptr null
  %2 = extractvalue { ptr, i32 } %1, 0
  call void @__clang_call_terminate(ptr %2) #15
  unreachable
}

; Function Attrs: mustprogress nounwind uwtable
define linkonce_odr hidden void @_ZN9stopwatch5resetEv(ptr noundef nonnull align 8 dereferenceable(17) %this) #5 comdat align 2 {
entry:
  %this.addr = alloca ptr, align 8
  %ref.tmp = alloca %"class.std::chrono::duration", align 8
  store ptr %this, ptr %this.addr, align 8
  %this1 = load ptr, ptr %this.addr, align 8
  %call = call i64 @_ZNSt6chrono8durationIlSt5ratioILl1ELl1000000000EEE4zeroEv() #3
  %coerce.dive = getelementptr inbounds %"class.std::chrono::duration", ptr %ref.tmp, i32 0, i32 0
  store i64 %call, ptr %coerce.dive, align 8
  %m_elapsed = getelementptr inbounds %class.stopwatch, ptr %this1, i32 0, i32 1
  call void @llvm.memcpy.p0.p0.i64(ptr align 8 %m_elapsed, ptr align 8 %ref.tmp, i64 8, i1 false)
  ret void
}

; Function Attrs: mustprogress uwtable
define hidden void @_ZN6spacer10iuc_solver16reset_statisticsEv(ptr noundef nonnull align 8 dereferenceable(398) %this) unnamed_addr #4 align 2 {
entry:
  %this.addr = alloca ptr, align 8
  store ptr %this, ptr %this.addr, align 8
  %this1 = load ptr, ptr %this.addr, align 8
  %m_iuc_sw = getelementptr inbounds %"class.spacer::iuc_solver", ptr %this1, i32 0, i32 11
  call void @_ZN9stopwatch5resetEv(ptr noundef nonnull align 8 dereferenceable(17) %m_iuc_sw)
  %m_hyp_reduce1_sw = getelementptr inbounds %"class.spacer::iuc_solver", ptr %this1, i32 0, i32 12
  call void @_ZN9stopwatch5resetEv(ptr noundef nonnull align 8 dereferenceable(17) %m_hyp_reduce1_sw)
  %m_hyp_reduce2_sw = getelementptr inbounds %"class.spacer::iuc_solver", ptr %this1, i32 0, i32 13
  call void @_ZN9stopwatch5resetEv(ptr noundef nonnull align 8 dereferenceable(17) %m_hyp_reduce2_sw)
  %m_learn_core_sw = getelementptr inbounds %"class.spacer::iuc_solver", ptr %this1, i32 0, i32 14
  call void @_ZN9stopwatch5resetEv(ptr noundef nonnull align 8 dereferenceable(17) %m_learn_core_sw)
  ret void
}