; Function Attrs: mustprogress nofree norecurse nosync nounwind willreturn memory(argmem: write) uwtable
define hidden void @_ZN6spacer10iuc_solver16reset_statisticsEv(ptr nocapture noundef nonnull writeonly align 8 dereferenceable(398) %this) unnamed_addr #7 align 2 personality ptr @__gxx_personality_v0 {
entry:
  %m_elapsed.i = getelementptr inbounds i8, ptr %this, i64 240
  store i64 0, ptr %m_elapsed.i, align 8
  %m_elapsed.i1 = getelementptr inbounds i8, ptr %this, i64 264
  store i64 0, ptr %m_elapsed.i1, align 8
  %m_elapsed.i2 = getelementptr inbounds i8, ptr %this, i64 288
  store i64 0, ptr %m_elapsed.i2, align 8
  %m_elapsed.i3 = getelementptr inbounds i8, ptr %this, i64 312
  store i64 0, ptr %m_elapsed.i3, align 8
  ret void
}